target datalayout = "e-m:e-p270:32:32-p271:32:32-p272:64:64-i64:64-i128:128-f80:128-n8:16:32:64-S128"
target triple = "x86_64-pc-linux-gnu"

%struct.AVFilterPad = type { ptr, i32, i32, %union.anon, ptr, ptr, ptr }
%union.anon = type { ptr }
%struct.AVFilterContext = type { ptr, ptr, ptr, ptr, ptr, i32, ptr, ptr, i32, ptr, ptr, i32, i32, ptr, ptr, ptr, ptr, i32, ptr, i32, i32 }
%struct.AVRational = type { i32, i32 }
%struct.AVChannelLayout = type { i32, i32, %union.anon.1, ptr }
%union.anon.1 = type { i64 }
%struct.AVFilterLink = type { ptr, ptr, ptr, ptr, i32, i32, i32, i32, %struct.AVRational, i32, i32, i32, %struct.AVChannelLayout, %struct.AVRational, ptr, i32, %struct.AVFilterFormatsConfig, %struct.AVFilterFormatsConfig }
%struct.AVFilterFormatsConfig = type { ptr, ptr, ptr, ptr, ptr }
%struct.FilterLink = type { %struct.AVFilterLink, ptr, i64, i64, i32, i32, i64, i64, i64, i64, %struct.AVRational, ptr }

@.str.5 = private unnamed_addr constant [127 x i8] c"Parameters for input link %s (size %dx%d, SAR %d:%d) do not match the corresponding output link parameters (%dx%d, SAR %d:%d)\0A\00", align 1

; Function Attrs: inlinehint nounwind uwtable
define internal ptr @ff_filter_link(ptr noundef %0) #3 {
  %2 = alloca ptr, align 8
  store ptr %0, ptr %2, align 8, !tbaa !39
  %3 = load ptr, ptr %2, align 8, !tbaa !39
  ret ptr %3
}

; Function Attrs: nounwind uwtable
define internal i32 @config_output(ptr noundef %0) #1 {
  %2 = alloca i32, align 4
  %3 = alloca ptr, align 8
  %4 = alloca ptr, align 8
  %5 = alloca ptr, align 8
  %6 = alloca ptr, align 8
  %7 = alloca i32, align 4
  %8 = alloca %struct.AVRational, align 4
  %9 = alloca %struct.AVRational, align 4
  %10 = alloca ptr, align 8
  %11 = alloca i32, align 4
  store ptr %0, ptr %3, align 8, !tbaa !39
  call void @llvm.lifetime.start.p0(i64 8, ptr %4) #9
  %12 = load ptr, ptr %3, align 8, !tbaa !39
  %13 = call ptr @ff_filter_link(ptr noundef %12)
  store ptr %13, ptr %4, align 8, !tbaa !63
  call void @llvm.lifetime.start.p0(i64 8, ptr %5) #9
  %14 = load ptr, ptr %3, align 8, !tbaa !39
  %15 = getelementptr inbounds nuw %struct.AVFilterLink, ptr %14, i32 0, i32 0
  %16 = load ptr, ptr %15, align 8, !tbaa !65
  store ptr %16, ptr %5, align 8, !tbaa !4
  call void @llvm.lifetime.start.p0(i64 8, ptr %6) #9
  %17 = load ptr, ptr %5, align 8, !tbaa !4
  %18 = getelementptr inbounds nuw %struct.AVFilterContext, ptr %17, i32 0, i32 4
  %19 = load ptr, ptr %18, align 8, !tbaa !43
  %20 = getelementptr inbounds ptr, ptr %19, i64 0
  %21 = load ptr, ptr %20, align 8, !tbaa !39
  store ptr %21, ptr %6, align 8, !tbaa !39
  call void @llvm.lifetime.start.p0(i64 4, ptr %7) #9
  %22 = load ptr, ptr %3, align 8, !tbaa !39
  %23 = getelementptr inbounds nuw %struct.AVFilterLink, ptr %22, i32 0, i32 4
  %24 = load i32, ptr %23, align 8, !tbaa !70
  %25 = icmp eq i32 %24, 0
  br i1 %25, label %26, label %149

26:                                               ; preds = %1
  %27 = load ptr, ptr %3, align 8, !tbaa !39
  %28 = getelementptr inbounds nuw %struct.AVFilterLink, ptr %27, i32 0, i32 13
  %29 = getelementptr inbounds nuw %struct.AVRational, ptr %8, i32 0, i32 0
  store i32 1, ptr %29, align 4, !tbaa !59
  %30 = getelementptr inbounds nuw %struct.AVRational, ptr %8, i32 0, i32 1
  store i32 1000000, ptr %30, align 4, !tbaa !60
  call void @llvm.memcpy.p0.p0.i64(ptr align 8 %28, ptr align 4 %8, i64 8, i1 false), !tbaa.struct !71
  %31 = load ptr, ptr %6, align 8, !tbaa !39
  %32 = getelementptr inbounds nuw %struct.AVFilterLink, ptr %31, i32 0, i32 6
  %33 = load i32, ptr %32, align 8, !tbaa !72
  %34 = load ptr, ptr %3, align 8, !tbaa !39
  %35 = getelementptr inbounds nuw %struct.AVFilterLink, ptr %34, i32 0, i32 6
  store i32 %33, ptr %35, align 8, !tbaa !72
  %36 = load ptr, ptr %6, align 8, !tbaa !39
  %37 = getelementptr inbounds nuw %struct.AVFilterLink, ptr %36, i32 0, i32 7
  %38 = load i32, ptr %37, align 4, !tbaa !73
  %39 = load ptr, ptr %3, align 8, !tbaa !39
  %40 = getelementptr inbounds nuw %struct.AVFilterLink, ptr %39, i32 0, i32 7
  store i32 %38, ptr %40, align 4, !tbaa !73
  %41 = load ptr, ptr %3, align 8, !tbaa !39
  %42 = getelementptr inbounds nuw %struct.AVFilterLink, ptr %41, i32 0, i32 8
  %43 = load ptr, ptr %6, align 8, !tbaa !39
  %44 = getelementptr inbounds nuw %struct.AVFilterLink, ptr %43, i32 0, i32 8
  call void @llvm.memcpy.p0.p0.i64(ptr align 8 %42, ptr align 8 %44, i64 8, i1 false), !tbaa.struct !71
  %45 = load ptr, ptr %6, align 8, !tbaa !39
  %46 = getelementptr inbounds nuw %struct.AVFilterLink, ptr %45, i32 0, i32 5
  %47 = load i32, ptr %46, align 4, !tbaa !74
  %48 = load ptr, ptr %3, align 8, !tbaa !39
  %49 = getelementptr inbounds nuw %struct.AVFilterLink, ptr %48, i32 0, i32 5
  store i32 %47, ptr %49, align 4, !tbaa !74
  %50 = load ptr, ptr %4, align 8, !tbaa !63
  %51 = getelementptr inbounds nuw %struct.FilterLink, ptr %50, i32 0, i32 10
  %52 = getelementptr inbounds nuw %struct.AVRational, ptr %9, i32 0, i32 0
  store i32 1, ptr %52, align 4, !tbaa !59
  %53 = getelementptr inbounds nuw %struct.AVRational, ptr %9, i32 0, i32 1
  store i32 0, ptr %53, align 4, !tbaa !60
  call void @llvm.memcpy.p0.p0.i64(ptr align 8 %51, ptr align 4 %9, i64 8, i1 false), !tbaa.struct !71
  store i32 1, ptr %7, align 4, !tbaa !28
  br label %54

54:                                               ; preds = %145, %26
  %55 = load i32, ptr %7, align 4, !tbaa !28
  %56 = load ptr, ptr %5, align 8, !tbaa !4
  %57 = getelementptr inbounds nuw %struct.AVFilterContext, ptr %56, i32 0, i32 5
  %58 = load i32, ptr %57, align 8, !tbaa !42
  %59 = icmp ult i32 %55, %58
  br i1 %59, label %60, label %148

60:                                               ; preds = %54
  call void @llvm.lifetime.start.p0(i64 8, ptr %10) #9
  %61 = load ptr, ptr %5, align 8, !tbaa !4
  %62 = getelementptr inbounds nuw %struct.AVFilterContext, ptr %61, i32 0, i32 4
  %63 = load ptr, ptr %62, align 8, !tbaa !43
  %64 = load i32, ptr %7, align 4, !tbaa !28
  %65 = sext i32 %64 to i64
  %66 = getelementptr inbounds ptr, ptr %63, i64 %65
  %67 = load ptr, ptr %66, align 8, !tbaa !39
  store ptr %67, ptr %10, align 8, !tbaa !39
  %68 = load ptr, ptr %3, align 8, !tbaa !39
  %69 = getelementptr inbounds nuw %struct.AVFilterLink, ptr %68, i32 0, i32 6
  %70 = load i32, ptr %69, align 8, !tbaa !72
  %71 = load ptr, ptr %10, align 8, !tbaa !39
  %72 = getelementptr inbounds nuw %struct.AVFilterLink, ptr %71, i32 0, i32 6
  %73 = load i32, ptr %72, align 8, !tbaa !72
  %74 = icmp ne i32 %70, %73
  br i1 %74, label %103, label %75

75:                                               ; preds = %60
  %76 = load ptr, ptr %3, align 8, !tbaa !39
  %77 = getelementptr inbounds nuw %struct.AVFilterLink, ptr %76, i32 0, i32 7
  %78 = load i32, ptr %77, align 4, !tbaa !73
  %79 = load ptr, ptr %10, align 8, !tbaa !39
  %80 = getelementptr inbounds nuw %struct.AVFilterLink, ptr %79, i32 0, i32 7
  %81 = load i32, ptr %80, align 4, !tbaa !73
  %82 = icmp ne i32 %78, %81
  br i1 %82, label %103, label %83

83:                                               ; preds = %75
  %84 = load ptr, ptr %3, align 8, !tbaa !39
  %85 = getelementptr inbounds nuw %struct.AVFilterLink, ptr %84, i32 0, i32 8
  %86 = getelementptr inbounds nuw %struct.AVRational, ptr %85, i32 0, i32 0
  %87 = load i32, ptr %86, align 8, !tbaa !75
  %88 = load ptr, ptr %10, align 8, !tbaa !39
  %89 = getelementptr inbounds nuw %struct.AVFilterLink, ptr %88, i32 0, i32 8
  %90 = getelementptr inbounds nuw %struct.AVRational, ptr %89, i32 0, i32 0
  %91 = load i32, ptr %90, align 8, !tbaa !75
  %92 = icmp ne i32 %87, %91
  br i1 %92, label %103, label %93

93:                                               ; preds = %83
  %94 = load ptr, ptr %3, align 8, !tbaa !39
  %95 = getelementptr inbounds nuw %struct.AVFilterLink, ptr %94, i32 0, i32 8
  %96 = getelementptr inbounds nuw %struct.AVRational, ptr %95, i32 0, i32 1
  %97 = load i32, ptr %96, align 4, !tbaa !76
  %98 = load ptr, ptr %10, align 8, !tbaa !39
  %99 = getelementptr inbounds nuw %struct.AVFilterLink, ptr %98, i32 0, i32 8
  %100 = getelementptr inbounds nuw %struct.AVRational, ptr %99, i32 0, i32 1
  %101 = load i32, ptr %100, align 4, !tbaa !76
  %102 = icmp ne i32 %97, %101
  br i1 %102, label %103, label %141

103:                                              ; preds = %93, %83, %75, %60
  %104 = load ptr, ptr %5, align 8, !tbaa !4
  %105 = load ptr, ptr %5, align 8, !tbaa !4
  %106 = getelementptr inbounds nuw %struct.AVFilterContext, ptr %105, i32 0, i32 3
  %107 = load ptr, ptr %106, align 8, !tbaa !77
  %108 = load i32, ptr %7, align 4, !tbaa !28
  %109 = sext i32 %108 to i64
  %110 = getelementptr inbounds %struct.AVFilterPad, ptr %107, i64 %109
  %111 = getelementptr inbounds nuw %struct.AVFilterPad, ptr %110, i32 0, i32 0
  %112 = load ptr, ptr %111, align 8, !tbaa !32
  %113 = load ptr, ptr %10, align 8, !tbaa !39
  %114 = getelementptr inbounds nuw %struct.AVFilterLink, ptr %113, i32 0, i32 6
  %115 = load i32, ptr %114, align 8, !tbaa !72
  %116 = load ptr, ptr %10, align 8, !tbaa !39
  %117 = getelementptr inbounds nuw %struct.AVFilterLink, ptr %116, i32 0, i32 7
  %118 = load i32, ptr %117, align 4, !tbaa !73
  %119 = load ptr, ptr %10, align 8, !tbaa !39
  %120 = getelementptr inbounds nuw %struct.AVFilterLink, ptr %119, i32 0, i32 8
  %121 = getelementptr inbounds nuw %struct.AVRational, ptr %120, i32 0, i32 0
  %122 = load i32, ptr %121, align 8, !tbaa !75
  %123 = load ptr, ptr %10, align 8, !tbaa !39
  %124 = getelementptr inbounds nuw %struct.AVFilterLink, ptr %123, i32 0, i32 8
  %125 = getelementptr inbounds nuw %struct.AVRational, ptr %124, i32 0, i32 1
  %126 = load i32, ptr %125, align 4, !tbaa !76
  %127 = load ptr, ptr %3, align 8, !tbaa !39
  %128 = getelementptr inbounds nuw %struct.AVFilterLink, ptr %127, i32 0, i32 6
  %129 = load i32, ptr %128, align 8, !tbaa !72
  %130 = load ptr, ptr %3, align 8, !tbaa !39
  %131 = getelementptr inbounds nuw %struct.AVFilterLink, ptr %130, i32 0, i32 7
  %132 = load i32, ptr %131, align 4, !tbaa !73
  %133 = load ptr, ptr %3, align 8, !tbaa !39
  %134 = getelementptr inbounds nuw %struct.AVFilterLink, ptr %133, i32 0, i32 8
  %135 = getelementptr inbounds nuw %struct.AVRational, ptr %134, i32 0, i32 0
  %136 = load i32, ptr %135, align 8, !tbaa !75
  %137 = load ptr, ptr %3, align 8, !tbaa !39
  %138 = getelementptr inbounds nuw %struct.AVFilterLink, ptr %137, i32 0, i32 8
  %139 = getelementptr inbounds nuw %struct.AVRational, ptr %138, i32 0, i32 1
  %140 = load i32, ptr %139, align 4, !tbaa !76
  call void (ptr, i32, ptr, ...) @av_log(ptr noundef %104, i32 noundef 16, ptr noundef @.str.5, ptr noundef %112, i32 noundef %115, i32 noundef %118, i32 noundef %122, i32 noundef %126, i32 noundef %129, i32 noundef %132, i32 noundef %136, i32 noundef %140)
  store i32 -22, ptr %2, align 4
  store i32 1, ptr %11, align 4
  br label %142

141:                                              ; preds = %93
  store i32 0, ptr %11, align 4
  br label %142

142:                                              ; preds = %141, %103
  call void @llvm.lifetime.end.p0(i64 8, ptr %10) #9
  %143 = load i32, ptr %11, align 4
  switch i32 %143, label %150 [
    i32 0, label %144
  ]

144:                                              ; preds = %142
  br label %145

145:                                              ; preds = %144
  %146 = load i32, ptr %7, align 4, !tbaa !28
  %147 = add nsw i32 %146, 1
  store i32 %147, ptr %7, align 4, !tbaa !28
  br label %54, !llvm.loop !78

148:                                              ; preds = %54
  br label %149

149:                                              ; preds = %148, %1
  store i32 0, ptr %2, align 4
  store i32 1, ptr %11, align 4
  br label %150

150:                                              ; preds = %149, %142
  call void @llvm.lifetime.end.p0(i64 4, ptr %7) #9
  call void @llvm.lifetime.end.p0(i64 8, ptr %6) #9
  call void @llvm.lifetime.end.p0(i64 8, ptr %5) #9
  call void @llvm.lifetime.end.p0(i64 8, ptr %4) #9
  %151 = load i32, ptr %2, align 4
  ret i32 %151
}