; Function Attrs: nounwind uwtable
define internal range(i32 -22, 1) i32 @config_output(ptr noundef captures(none) %0) #1 {
  %2 = load ptr, ptr %0, align 8, !tbaa !54
  %3 = getelementptr inbounds nuw i8, ptr %2, i64 32
  %4 = getelementptr inbounds nuw i8, ptr %0, i64 32
  %5 = load i32, ptr %4, align 8, !tbaa !60
  %6 = icmp eq i32 %5, 0
  br i1 %6, label %7, label %.loopexit

7:                                                ; preds = %1
  %8 = load ptr, ptr %3, align 8, !tbaa !36
  %9 = load ptr, ptr %8, align 8, !tbaa !33
  %10 = getelementptr inbounds nuw i8, ptr %0, i64 96
  store i32 1, ptr %10, align 8, !tbaa !61
  %.sroa.29.0..sroa_idx = getelementptr inbounds nuw i8, ptr %0, i64 100
  store i32 1000000, ptr %.sroa.29.0..sroa_idx, align 4, !tbaa !61
  %11 = getelementptr inbounds nuw i8, ptr %9, i64 40
  %12 = load i32, ptr %11, align 8, !tbaa !62
  %13 = getelementptr inbounds nuw i8, ptr %0, i64 40
  store i32 %12, ptr %13, align 8, !tbaa !62
  %14 = getelementptr inbounds nuw i8, ptr %9, i64 44
  %15 = load i32, ptr %14, align 4, !tbaa !63
  %16 = getelementptr inbounds nuw i8, ptr %0, i64 44
  store i32 %15, ptr %16, align 4, !tbaa !63
  %17 = getelementptr inbounds nuw i8, ptr %0, i64 48
  %18 = getelementptr inbounds nuw i8, ptr %9, i64 48
  %19 = load i64, ptr %18, align 8
  store i64 %19, ptr %17, align 8
  %20 = getelementptr inbounds nuw i8, ptr %9, i64 36
  %21 = load i32, ptr %20, align 4, !tbaa !64
  %22 = getelementptr inbounds nuw i8, ptr %0, i64 36
  store i32 %21, ptr %22, align 4, !tbaa !64
  %23 = getelementptr inbounds nuw i8, ptr %0, i64 264
  store i32 1, ptr %23, align 8, !tbaa !61
  %.sroa.2.0..sroa_idx = getelementptr inbounds nuw i8, ptr %0, i64 268
  store i32 0, ptr %.sroa.2.0..sroa_idx, align 4, !tbaa !61
  %24 = getelementptr inbounds nuw i8, ptr %2, i64 40
  %25 = load i32, ptr %24, align 8, !tbaa !35
  %26 = icmp ugt i32 %25, 1
  %27 = trunc i64 %19 to i32
  %28 = lshr i64 %19, 32
  %29 = trunc nuw i64 %28 to i32
  br i1 %26, label %.lr.ph, label %.loopexit

.lr.ph:                                           ; preds = %7
  %30 = load ptr, ptr %3, align 8, !tbaa !36
  %wide.trip.count = zext i32 %25 to i64
  br label %32

31:                                               ; preds = %43
  %indvars.iv.next = add nuw nsw i64 %indvars.iv, 1
  %exitcond.not = icmp eq i64 %indvars.iv.next, %wide.trip.count
  br i1 %exitcond.not, label %.loopexit, label %32, !llvm.loop !65

32:                                               ; preds = %.lr.ph, %31
  %indvars.iv = phi i64 [ 1, %.lr.ph ], [ %indvars.iv.next, %31 ]
  %33 = getelementptr inbounds nuw ptr, ptr %30, i64 %indvars.iv
  %34 = load ptr, ptr %33, align 8, !tbaa !33
  %35 = getelementptr inbounds nuw i8, ptr %34, i64 40
  %36 = load i32, ptr %35, align 8, !tbaa !62
  %.not = icmp eq i32 %12, %36
  %37 = getelementptr inbounds nuw i8, ptr %34, i64 44
  %38 = load i32, ptr %37, align 4, !tbaa !63
  br i1 %.not, label %39, label %.critedge

39:                                               ; preds = %32
  %.not43 = icmp eq i32 %15, %38
  br i1 %.not43, label %40, label %.critedge

40:                                               ; preds = %39
  %41 = getelementptr inbounds nuw i8, ptr %34, i64 48
  %42 = load i32, ptr %41, align 8, !tbaa !66
  %.not44 = icmp eq i32 %42, %27
  br i1 %.not44, label %43, label %.critedge

43:                                               ; preds = %40
  %44 = getelementptr inbounds nuw i8, ptr %34, i64 52
  %45 = load i32, ptr %44, align 4, !tbaa !67
  %.not45 = icmp eq i32 %45, %29
  br i1 %.not45, label %31, label %.critedge

.critedge:                                        ; preds = %43, %40, %39, %32
  %.lcssa = phi i32 [ %36, %32 ], [ %12, %39 ], [ %12, %40 ], [ %12, %43 ]
  %46 = getelementptr inbounds nuw i8, ptr %2, i64 24
  %47 = load ptr, ptr %46, align 8, !tbaa !68
  %48 = getelementptr inbounds nuw %struct.AVFilterPad, ptr %47, i64 %indvars.iv
  %49 = load ptr, ptr %48, align 8, !tbaa !28
  %50 = getelementptr inbounds nuw i8, ptr %34, i64 48
  %51 = load i32, ptr %50, align 8, !tbaa !66
  %52 = getelementptr inbounds nuw i8, ptr %34, i64 52
  %53 = load i32, ptr %52, align 4, !tbaa !67
  tail call void (ptr, i32, ptr, ...) @av_log(ptr noundef nonnull %2, i32 noundef 16, ptr noundef nonnull @.str.5, ptr noundef %49, i32 noundef %.lcssa, i32 noundef %38, i32 noundef %51, i32 noundef %53, i32 noundef %12, i32 noundef %15, i32 noundef %27, i32 noundef %29) #8
  br label %.loopexit

.loopexit:                                        ; preds = %31, %7, %1, %.critedge
  %.2 = phi i32 [ -22, %.critedge ], [ 0, %1 ], [ 0, %7 ], [ 0, %31 ]
  ret i32 %.2
}